; Function Attrs: mustprogress uwtable
define internal void @_ZN32pxrInternal_v0_24__pxrReserved__12_GLOBAL__N_111_CubeToMesh17_PointsDataSource8GetValueEf(ptr dead_on_unwind noalias nocapture writable writeonly sret(%"class.pxrInternal_v0_24__pxrReserved__::VtValue") align 8 %0, ptr noundef nonnull align 8 dereferenceable(24) %1, float noundef %2) unnamed_addr #1 align 2 personality ptr @__gxx_personality_v0 {
  %4 = alloca %"class.pxrInternal_v0_24__pxrReserved__::VtArray.91", align 8
  %5 = load ptr, ptr %1, align 8
  %6 = getelementptr inbounds i8, ptr %5, i64 32
  %7 = load ptr, ptr %6, align 8
  call void %7(ptr dead_on_unwind nonnull writable sret(%"class.pxrInternal_v0_24__pxrReserved__::VtArray.91") align 8 %4, ptr noundef nonnull align 8 dereferenceable(24) %1, float noundef %2)
  %8 = getelementptr inbounds nuw i8, ptr %0, i64 8
  store ptr @_ZZN32pxrInternal_v0_24__pxrReserved__7VtValue11GetTypeInfoINS_7VtArrayINS_7GfVec3fEEEEENS_16TfPointerAndBitsIKNS0_9_TypeInfoEEEvE2ti, ptr %8, align 8
  %9 = invoke noalias noundef nonnull dereferenceable(48) ptr @_Znwm(i64 noundef 48) #23
          to label %.noexc unwind label %15

.noexc:                                           ; preds = %3
  invoke void @_ZN32pxrInternal_v0_24__pxrReserved__7VtArrayINS_7GfVec3fEEC1ERKS2_(ptr noundef nonnull align 8 dereferenceable(40) %9, ptr noundef nonnull align 8 dereferenceable(40) %4)
          to label %12 unwind label %10

10:                                               ; preds = %.noexc
  %11 = landingpad { ptr, i32 }
          cleanup
  call void @_ZdlPvm(ptr noundef nonnull %9, i64 noundef 48) #22
  br label %.body

12:                                               ; preds = %.noexc
  %13 = getelementptr inbounds nuw i8, ptr %9, i64 40
  store atomic i32 0, ptr %13 seq_cst, align 4
  store ptr %9, ptr %0, align 8
  %14 = atomicrmw add ptr %13, i32 1 monotonic, align 4
  call void @_ZN32pxrInternal_v0_24__pxrReserved__7VtArrayINS_7GfVec3fEED1Ev(ptr noundef nonnull align 8 dereferenceable(40) %4) #24
  ret void

15:                                               ; preds = %3
  %16 = landingpad { ptr, i32 }
          cleanup
  br label %.body

.body:                                            ; preds = %10, %15
  %eh.lpad-body = phi { ptr, i32 } [ %16, %15 ], [ %11, %10 ]
  call void @_ZN32pxrInternal_v0_24__pxrReserved__7VtArrayINS_7GfVec3fEED1Ev(ptr noundef nonnull align 8 dereferenceable(40) %4) #24
  resume { ptr, i32 } %eh.lpad-body
}